; Function Attrs: mustprogress nounwind uwtable
define internal void @_ZL25llama_sampler_infill_freeP13llama_sampler(ptr noundef readonly captures(none) %0) #19 personality ptr @__gxx_personality_v0 {
  %2 = getelementptr inbounds nuw i8, ptr %0, i64 8
  %3 = load ptr, ptr %2, align 8, !tbaa !9
  %4 = icmp eq ptr %3, null
  br i1 %4, label %22, label %5

5:                                                ; preds = %1
  %6 = getelementptr inbounds nuw i8, ptr %3, i64 32
  %7 = load ptr, ptr %6, align 8, !tbaa !190
  %.not.i.i.i.i = icmp eq ptr %7, null
  br i1 %.not.i.i.i.i, label %_ZNSt6vectorIcSaIcEED2Ev.exit.i, label %8

8:                                                ; preds = %5
  %9 = getelementptr inbounds nuw i8, ptr %3, i64 48
  %10 = load ptr, ptr %9, align 8, !tbaa !191
  %11 = ptrtoint ptr %10 to i64
  %12 = ptrtoint ptr %7 to i64
  %13 = sub i64 %11, %12
  tail call void @_ZdlPvm(ptr noundef nonnull %7, i64 noundef %13) #32
  br label %_ZNSt6vectorIcSaIcEED2Ev.exit.i

_ZNSt6vectorIcSaIcEED2Ev.exit.i:                  ; preds = %8, %5
  %14 = getelementptr inbounds nuw i8, ptr %3, i64 8
  %15 = load ptr, ptr %14, align 8, !tbaa !190
  %.not.i.i.i1.i = icmp eq ptr %15, null
  br i1 %.not.i.i.i1.i, label %_ZN20llama_sampler_infillD2Ev.exit, label %16

16:                                               ; preds = %_ZNSt6vectorIcSaIcEED2Ev.exit.i
  %17 = getelementptr inbounds nuw i8, ptr %3, i64 24
  %18 = load ptr, ptr %17, align 8, !tbaa !191
  %19 = ptrtoint ptr %18 to i64
  %20 = ptrtoint ptr %15 to i64
  %21 = sub i64 %19, %20
  tail call void @_ZdlPvm(ptr noundef nonnull %15, i64 noundef %21) #32
  br label %_ZN20llama_sampler_infillD2Ev.exit

_ZN20llama_sampler_infillD2Ev.exit:               ; preds = %_ZNSt6vectorIcSaIcEED2Ev.exit.i, %16
  tail call void @_ZdlPvm(ptr noundef nonnull %3, i64 noundef 56) #32
  br label %22

22:                                               ; preds = %_ZN20llama_sampler_infillD2Ev.exit, %1
  ret void
}